; Function Attrs: mustprogress uwtable
define dso_local noundef zeroext i1 @_ZN4Luau6Parser16expectAndConsumeENS_6Lexeme4TypeEPKc(ptr noundef nonnull align 8 dereferenceable(1072) %0, i32 noundef %1, ptr noundef %2) local_unnamed_addr #2 align 2 {
  %4 = alloca %"struct.Luau::Lexeme", align 8
  %5 = getelementptr inbounds nuw i8, ptr %0, i64 128
  %6 = load i32, ptr %5, align 8, !tbaa !79
  %.not = icmp eq i32 %6, %1
  br i1 %.not, label %12, label %7

7:                                                ; preds = %3
  %8 = getelementptr inbounds nuw i8, ptr %0, i64 96
  tail call void @_ZN4Luau6Parser20expectAndConsumeFailENS_6Lexeme4TypeEPKc(ptr noundef nonnull align 8 dereferenceable(1072) %0, i32 noundef %1, ptr noundef %2)
  call void @llvm.lifetime.start.p0(i64 32, ptr nonnull %4) #29
  call void @_ZN4Luau5Lexer9lookaheadEv(ptr dead_on_unwind nonnull writable sret(%"struct.Luau::Lexeme") align 8 %4, ptr noundef nonnull align 8 dereferenceable(120) %8)
  %9 = load i32, ptr %4, align 8, !tbaa !79
  %10 = icmp eq i32 %9, %1
  call void @llvm.lifetime.end.p0(i64 32, ptr nonnull %4) #29
  br i1 %10, label %11, label %13

11:                                               ; preds = %7
  call void @_ZN4Luau6Parser10nextLexemeEv(ptr noundef nonnull align 8 dereferenceable(1072) %0)
  call void @_ZN4Luau6Parser10nextLexemeEv(ptr noundef nonnull align 8 dereferenceable(1072) %0)
  br label %13

12:                                               ; preds = %3
  tail call void @_ZN4Luau6Parser10nextLexemeEv(ptr noundef nonnull align 8 dereferenceable(1072) %0)
  br label %13

13:                                               ; preds = %7, %11, %12
  ret i1 %.not
}